target datalayout = "e-m:e-p270:32:32-p271:32:32-p272:64:64-i64:64-i128:128-f80:128-n8:16:32:64-S128"
target triple = "x86_64-pc-linux-gnu"

%"class.std::__shared_count" = type { ptr }
%"class.cv::util::variant.3" = type { i64, [1 x %"union.std::aligned_storage<32, 8>::type"] }
%"union.std::aligned_storage<32, 8>::type" = type { [32 x i8] }
%"class.cv::GScalar" = type { %"class.std::shared_ptr" }
%"class.std::shared_ptr" = type { %"class.std::__shared_ptr" }
%"class.std::__shared_ptr" = type { ptr, %"class.std::__shared_count" }
%"struct.std::array" = type { [3 x ptr] }
%"class.std::_Sp_counted_base" = type { ptr, i32, i32 }
%"class.std::_Sp_counted_ptr" = type { %"class.std::_Sp_counted_base", ptr }

; Function Attrs: mustprogress nounwind uwtable
define linkonce_odr hidden void @_ZNSt16_Sp_counted_baseILN9__gnu_cxx12_Lock_policyE2EEC2Ev(ptr noundef nonnull align 8 dereferenceable(16) %0) unnamed_addr #7 comdat align 2 {
  %2 = alloca ptr, align 8
  store ptr %0, ptr %2, align 8, !tbaa !48
  %3 = load ptr, ptr %2, align 8
  store ptr getelementptr inbounds inrange(-16, 40) ({ [7 x ptr] }, ptr @_ZTVSt16_Sp_counted_baseILN9__gnu_cxx12_Lock_policyE2EE, i32 0, i32 0, i32 2), ptr %3, align 8, !tbaa !39
  %4 = getelementptr inbounds nuw %"class.std::_Sp_counted_base", ptr %3, i32 0, i32 1
  store i32 1, ptr %4, align 8, !tbaa !55
  %5 = getelementptr inbounds nuw %"class.std::_Sp_counted_base", ptr %3, i32 0, i32 2
  store i32 1, ptr %5, align 4, !tbaa !57
  ret void
}

; Function Attrs: mustprogress nounwind uwtable
define linkonce_odr hidden void @_ZNSt15_Sp_counted_ptrIPN2cv7GOriginELN9__gnu_cxx12_Lock_policyE2EEC2ES2_(ptr noundef nonnull align 8 dereferenceable(24) %0, ptr noundef %1) unnamed_addr #7 comdat align 2 {
  %3 = alloca ptr, align 8
  %4 = alloca ptr, align 8
  store ptr %0, ptr %3, align 8, !tbaa !88
  store ptr %1, ptr %4, align 8, !tbaa !15
  %5 = load ptr, ptr %3, align 8
  call void @_ZNSt16_Sp_counted_baseILN9__gnu_cxx12_Lock_policyE2EEC2Ev(ptr noundef nonnull align 8 dereferenceable(16) %5) #3
  store ptr getelementptr inbounds inrange(-16, 40) ({ [7 x ptr] }, ptr @_ZTVSt15_Sp_counted_ptrIPN2cv7GOriginELN9__gnu_cxx12_Lock_policyE2EE, i32 0, i32 0, i32 2), ptr %5, align 8, !tbaa !39
  %6 = getelementptr inbounds nuw %"class.std::_Sp_counted_ptr", ptr %5, i32 0, i32 1
  %7 = load ptr, ptr %4, align 8, !tbaa !15
  store ptr %7, ptr %6, align 8, !tbaa !90
  ret void
}

; Function Attrs: mustprogress uwtable
define linkonce_odr hidden void @_ZNSt14__shared_countILN9__gnu_cxx12_Lock_policyE2EEC2IPN2cv7GOriginEEET_(ptr noundef nonnull align 8 dereferenceable(8) %0, ptr noundef %1) unnamed_addr #4 comdat align 2 personality ptr @__gxx_personality_v0 {
  %3 = alloca ptr, align 8
  %4 = alloca ptr, align 8
  %5 = alloca ptr, align 8
  %6 = alloca i32, align 4
  store ptr %0, ptr %3, align 8, !tbaa !43
  store ptr %1, ptr %4, align 8, !tbaa !15
  %7 = load ptr, ptr %3, align 8
  %8 = getelementptr inbounds nuw %"class.std::__shared_count", ptr %7, i32 0, i32 0
  store ptr null, ptr %8, align 8, !tbaa !45
  %9 = invoke noalias noundef nonnull ptr @_Znwm(i64 noundef 24) #18
          to label %10 unwind label %13

10:                                               ; preds = %2
  %11 = load ptr, ptr %4, align 8, !tbaa !15
  call void @_ZNSt15_Sp_counted_ptrIPN2cv7GOriginELN9__gnu_cxx12_Lock_policyE2EEC2ES2_(ptr noundef nonnull align 8 dereferenceable(24) %9, ptr noundef %11) #3
  %12 = getelementptr inbounds nuw %"class.std::__shared_count", ptr %7, i32 0, i32 0
  store ptr %9, ptr %12, align 8, !tbaa !45
  br label %29

13:                                               ; preds = %2
  %14 = landingpad { ptr, i32 }
          catch ptr null
  %15 = extractvalue { ptr, i32 } %14, 0
  store ptr %15, ptr %5, align 8
  %16 = extractvalue { ptr, i32 } %14, 1
  store i32 %16, ptr %6, align 4
  br label %17

17:                                               ; preds = %13
  %18 = load ptr, ptr %5, align 8
  %19 = call ptr @__cxa_begin_catch(ptr %18) #3
  %20 = load ptr, ptr %4, align 8, !tbaa !15
  %21 = icmp eq ptr %20, null
  br i1 %21, label %23, label %22

22:                                               ; preds = %17
  call void @_ZN2cv7GOriginD2Ev(ptr noundef nonnull align 8 dereferenceable(180) %20) #3
  call void @_ZdlPv(ptr noundef %20) #19
  br label %23

23:                                               ; preds = %22, %17
  invoke void @__cxa_rethrow() #21
          to label %38 unwind label %24

24:                                               ; preds = %23
  %25 = landingpad { ptr, i32 }
          cleanup
  %26 = extractvalue { ptr, i32 } %25, 0
  store ptr %26, ptr %5, align 8
  %27 = extractvalue { ptr, i32 } %25, 1
  store i32 %27, ptr %6, align 4
  invoke void @__cxa_end_catch()
          to label %28 unwind label %35

28:                                               ; preds = %24
  br label %30

29:                                               ; preds = %10
  ret void

30:                                               ; preds = %28
  %31 = load ptr, ptr %5, align 8
  %32 = load i32, ptr %6, align 4
  %33 = insertvalue { ptr, i32 } poison, ptr %31, 0
  %34 = insertvalue { ptr, i32 } %33, i32 %32, 1
  resume { ptr, i32 } %34

35:                                               ; preds = %24
  %36 = landingpad { ptr, i32 }
          catch ptr null
  %37 = extractvalue { ptr, i32 } %36, 0
  call void @__clang_call_terminate(ptr %37) #20
  unreachable

38:                                               ; preds = %23
  unreachable
}

; Function Attrs: mustprogress nounwind uwtable
define linkonce_odr hidden noundef nonnull align 8 dereferenceable(8) ptr @_ZNSt14__array_traitsIPFvPNSt15aligned_storageILm32ELm8EE4typeEELm3EE6_S_refERA3_KS5_m(ptr noundef nonnull align 8 dereferenceable(24) %0, i64 noundef %1) #7 comdat align 2 {
  %3 = alloca ptr, align 8
  %4 = alloca i64, align 8
  store ptr %0, ptr %3, align 8, !tbaa !82
  store i64 %1, ptr %4, align 8, !tbaa !20
  %5 = load ptr, ptr %3, align 8, !tbaa !82
  %6 = load i64, ptr %4, align 8, !tbaa !20
  %7 = getelementptr inbounds nuw [3 x ptr], ptr %5, i64 0, i64 %6
  ret ptr %7
}

; Function Attrs: mustprogress nounwind uwtable
define linkonce_odr hidden void @_ZNSt12__shared_ptrIN2cv7GOriginELN9__gnu_cxx12_Lock_policyE2EE31_M_enable_shared_from_this_withIS1_S1_EENSt9enable_ifIXntsr15__has_esft_baseIT0_EE5valueEvE4typeEPT_(ptr noundef nonnull align 8 dereferenceable(16) %0, ptr noundef %1) #7 comdat align 2 {
  %3 = alloca ptr, align 8
  %4 = alloca ptr, align 8
  store ptr %0, ptr %3, align 8, !tbaa !84
  store ptr %1, ptr %4, align 8, !tbaa !15
  ret void
}

; Function Attrs: mustprogress uwtable
define linkonce_odr hidden void @_ZNSt14__shared_countILN9__gnu_cxx12_Lock_policyE2EEC2IPN2cv7GOriginEEET_St17integral_constantIbLb0EE(ptr noundef nonnull align 8 dereferenceable(8) %0, ptr noundef %1) unnamed_addr #4 comdat align 2 {
  %3 = alloca ptr, align 8
  %4 = alloca ptr, align 8
  store ptr %0, ptr %3, align 8, !tbaa !43
  store ptr %1, ptr %4, align 8, !tbaa !15
  %5 = load ptr, ptr %3, align 8
  %6 = load ptr, ptr %4, align 8, !tbaa !15
  call void @_ZNSt14__shared_countILN9__gnu_cxx12_Lock_policyE2EEC2IPN2cv7GOriginEEET_(ptr noundef nonnull align 8 dereferenceable(8) %5, ptr noundef %6)
  ret void
}

; Function Attrs: mustprogress nounwind uwtable
define linkonce_odr hidden noundef nonnull align 8 dereferenceable(8) ptr @_ZNSt5arrayIPFvPNSt15aligned_storageILm32ELm8EE4typeEELm3EEixEm(ptr noundef nonnull align 8 dereferenceable(24) %0, i64 noundef %1) #7 comdat align 2 {
  %3 = alloca ptr, align 8
  %4 = alloca i64, align 8
  store ptr %0, ptr %3, align 8, !tbaa !74
  store i64 %1, ptr %4, align 8, !tbaa !20
  %5 = load ptr, ptr %3, align 8
  %6 = getelementptr inbounds nuw %"struct.std::array", ptr %5, i32 0, i32 0
  %7 = load i64, ptr %4, align 8, !tbaa !20
  %8 = call noundef nonnull align 8 dereferenceable(8) ptr @_ZNSt14__array_traitsIPFvPNSt15aligned_storageILm32ELm8EE4typeEELm3EE6_S_refERA3_KS5_m(ptr noundef nonnull align 8 dereferenceable(24) %6, i64 noundef %7) #3
  ret ptr %8
}

; Function Attrs: mustprogress nounwind uwtable
define linkonce_odr hidden void @_ZN2cv4util7variantIJNS0_9monostateESt8functionIFvRNS_6detail9VectorRefEEES3_IFvRNS4_9OpaqueRefEEEEE5dtorsEv(ptr dead_on_unwind noalias writable sret(%"struct.std::array") align 8 %0) #7 comdat align 2 {
  %2 = getelementptr inbounds nuw %"struct.std::array", ptr %0, i32 0, i32 0
  call void @llvm.memcpy.p0.p0.i64(ptr align 8 %2, ptr align 8 @constinit, i64 24, i1 false), !tbaa.struct !73
  ret void
}

; Function Attrs: mustprogress uwtable
define linkonce_odr hidden void @_ZNSt12__shared_ptrIN2cv7GOriginELN9__gnu_cxx12_Lock_policyE2EEC2IS1_vEEPT_(ptr noundef nonnull align 8 dereferenceable(16) %0, ptr noundef %1) unnamed_addr #4 comdat align 2 {
  %3 = alloca ptr, align 8
  %4 = alloca ptr, align 8
  store ptr %0, ptr %3, align 8, !tbaa !84
  store ptr %1, ptr %4, align 8, !tbaa !15
  %5 = load ptr, ptr %3, align 8
  %6 = getelementptr inbounds nuw %"class.std::__shared_ptr", ptr %5, i32 0, i32 0
  %7 = load ptr, ptr %4, align 8, !tbaa !15
  store ptr %7, ptr %6, align 8, !tbaa !86
  %8 = getelementptr inbounds nuw %"class.std::__shared_ptr", ptr %5, i32 0, i32 1
  %9 = load ptr, ptr %4, align 8, !tbaa !15
  call void @_ZNSt14__shared_countILN9__gnu_cxx12_Lock_policyE2EEC2IPN2cv7GOriginEEET_St17integral_constantIbLb0EE(ptr noundef nonnull align 8 dereferenceable(8) %8, ptr noundef %9)
  %10 = load ptr, ptr %4, align 8, !tbaa !15
  call void @_ZNSt12__shared_ptrIN2cv7GOriginELN9__gnu_cxx12_Lock_policyE2EE31_M_enable_shared_from_this_withIS1_S1_EENSt9enable_ifIXntsr15__has_esft_baseIT0_EE5valueEvE4typeEPT_(ptr noundef nonnull align 8 dereferenceable(16) %5, ptr noundef %10) #3
  ret void
}

; Function Attrs: mustprogress nounwind uwtable
define linkonce_odr hidden void @_ZN2cv4util7variantIJNS0_9monostateESt8functionIFvRNS_6detail9VectorRefEEES3_IFvRNS4_9OpaqueRefEEEEED2Ev(ptr noundef nonnull align 8 dereferenceable(40) %0) unnamed_addr #7 comdat align 2 personality ptr @__gxx_personality_v0 {
  %2 = alloca ptr, align 8
  %3 = alloca %"struct.std::array", align 8
  store ptr %0, ptr %2, align 8, !tbaa !8
  %4 = load ptr, ptr %2, align 8
  call void @llvm.lifetime.start.p0(i64 24, ptr %3) #3
  invoke void @_ZN2cv4util7variantIJNS0_9monostateESt8functionIFvRNS_6detail9VectorRefEEES3_IFvRNS4_9OpaqueRefEEEEE5dtorsEv(ptr dead_on_unwind writable sret(%"struct.std::array") align 8 %3)
          to label %5 unwind label %13

5:                                                ; preds = %1
  %6 = getelementptr inbounds nuw %"class.cv::util::variant.3", ptr %4, i32 0, i32 0
  %7 = load i64, ptr %6, align 8, !tbaa !10
  %8 = call noundef nonnull align 8 dereferenceable(8) ptr @_ZNSt5arrayIPFvPNSt15aligned_storageILm32ELm8EE4typeEELm3EEixEm(ptr noundef nonnull align 8 dereferenceable(24) %3, i64 noundef %7) #3
  %9 = load ptr, ptr %8, align 8, !tbaa !17
  %10 = getelementptr inbounds nuw %"class.cv::util::variant.3", ptr %4, i32 0, i32 1
  %11 = getelementptr inbounds [1 x %"union.std::aligned_storage<32, 8>::type"], ptr %10, i64 0, i64 0
  invoke void %9(ptr noundef %11)
          to label %12 unwind label %13

12:                                               ; preds = %5
  call void @llvm.lifetime.end.p0(i64 24, ptr %3) #3
  ret void

13:                                               ; preds = %5, %1
  %14 = landingpad { ptr, i32 }
          catch ptr null
  %15 = extractvalue { ptr, i32 } %14, 0
  call void @__clang_call_terminate(ptr %15) #20
  unreachable
}

; Function Attrs: mustprogress uwtable
define linkonce_odr hidden void @_ZNSt10shared_ptrIN2cv7GOriginEEC2IS1_vEEPT_(ptr noundef nonnull align 8 dereferenceable(16) %0, ptr noundef %1) unnamed_addr #4 comdat align 2 {
  %3 = alloca ptr, align 8
  %4 = alloca ptr, align 8
  store ptr %0, ptr %3, align 8, !tbaa !13
  store ptr %1, ptr %4, align 8, !tbaa !15
  %5 = load ptr, ptr %3, align 8
  %6 = load ptr, ptr %4, align 8, !tbaa !15
  call void @_ZNSt12__shared_ptrIN2cv7GOriginELN9__gnu_cxx12_Lock_policyE2EEC2IS1_vEEPT_(ptr noundef nonnull align 8 dereferenceable(16) %5, ptr noundef %6)
  ret void
}

; Function Attrs: mustprogress nounwind uwtable
define linkonce_odr hidden void @_ZN2cv4util7variantIJNS0_9monostateESt8functionIFvRNS_6detail9VectorRefEEES3_IFvRNS4_9OpaqueRefEEEEEC2Ev(ptr noundef nonnull align 8 dereferenceable(40) %0) unnamed_addr #7 comdat align 2 {
  %2 = alloca ptr, align 8
  store ptr %0, ptr %2, align 8, !tbaa !8
  %3 = load ptr, ptr %2, align 8
  %4 = getelementptr inbounds nuw %"class.cv::util::variant.3", ptr %3, i32 0, i32 0
  store i64 0, ptr %4, align 8, !tbaa !10
  ret void
}

; Function Attrs: mustprogress uwtable
define void @_ZN2cv7GScalarC2ERKNS_5GNodeEm(ptr noundef nonnull align 8 dereferenceable(16) %0, ptr noundef nonnull align 8 dereferenceable(16) %1, i64 noundef %2) unnamed_addr #4 align 2 personality ptr @__gxx_personality_v0 {
  %4 = alloca ptr, align 8
  %5 = alloca ptr, align 8
  %6 = alloca i64, align 8
  %7 = alloca %"class.cv::util::variant.3", align 8
  %8 = alloca ptr, align 8
  %9 = alloca i32, align 4
  %10 = alloca i1, align 1
  store ptr %0, ptr %4, align 8, !tbaa !3
  store ptr %1, ptr %5, align 8, !tbaa !18
  store i64 %2, ptr %6, align 8, !tbaa !20
  %11 = load ptr, ptr %4, align 8
  %12 = getelementptr inbounds nuw %"class.cv::GScalar", ptr %11, i32 0, i32 0
  %13 = call noalias noundef nonnull ptr @_Znwm(i64 noundef 184) #18
  store i1 true, ptr %10, align 1
  %14 = load ptr, ptr %5, align 8, !tbaa !18
  %15 = load i64, ptr %6, align 8, !tbaa !20
  call void @_ZN2cv4util7variantIJNS0_9monostateESt8functionIFvRNS_6detail9VectorRefEEES3_IFvRNS4_9OpaqueRefEEEEEC2Ev(ptr noundef nonnull align 8 dereferenceable(40) %7) #3
  invoke void @_ZN2cv7GOriginC1ENS_6GShapeERKNS_5GNodeEmNS_4util7variantIJNS5_9monostateESt8functionIFvRNS_6detail9VectorRefEEES8_IFvRNS9_9OpaqueRefEEEEEENS9_10OpaqueKindE(ptr noundef nonnull align 8 dereferenceable(180) %13, i32 noundef 1, ptr noundef nonnull align 8 dereferenceable(16) %14, i64 noundef %15, ptr noundef %7, i32 noundef 0)
          to label %16 unwind label %18

16:                                               ; preds = %3
  store i1 false, ptr %10, align 1
  invoke void @_ZNSt10shared_ptrIN2cv7GOriginEEC2IS1_vEEPT_(ptr noundef nonnull align 8 dereferenceable(16) %12, ptr noundef %13)
          to label %17 unwind label %18

17:                                               ; preds = %16
  call void @_ZN2cv4util7variantIJNS0_9monostateESt8functionIFvRNS_6detail9VectorRefEEES3_IFvRNS4_9OpaqueRefEEEEED2Ev(ptr noundef nonnull align 8 dereferenceable(40) %7) #3
  ret void

18:                                               ; preds = %16, %3
  %19 = landingpad { ptr, i32 }
          cleanup
  %20 = extractvalue { ptr, i32 } %19, 0
  store ptr %20, ptr %8, align 8
  %21 = extractvalue { ptr, i32 } %19, 1
  store i32 %21, ptr %9, align 4
  call void @_ZN2cv4util7variantIJNS0_9monostateESt8functionIFvRNS_6detail9VectorRefEEES3_IFvRNS4_9OpaqueRefEEEEED2Ev(ptr noundef nonnull align 8 dereferenceable(40) %7) #3
  %22 = load i1, ptr %10, align 1
  br i1 %22, label %23, label %24

23:                                               ; preds = %18
  call void @_ZdlPv(ptr noundef %13) #19
  br label %24

24:                                               ; preds = %23, %18
  br label %25

25:                                               ; preds = %24
  %26 = load ptr, ptr %8, align 8
  %27 = load i32, ptr %9, align 4
  %28 = insertvalue { ptr, i32 } poison, ptr %26, 0
  %29 = insertvalue { ptr, i32 } %28, i32 %27, 1
  resume { ptr, i32 } %29
}